target datalayout = "e-m:e-p270:32:32-p271:32:32-p272:64:64-i64:64-i128:128-f80:128-n8:16:32:64-S128"
target triple = "x86_64-pc-linux-gnu"

; Function Attrs: nounwind uwtable
define i32 @dt_util_is_dir_empty(ptr noundef %0) #0 {
  %2 = alloca i32, align 4
  %3 = alloca ptr, align 8
  %4 = alloca i32, align 4
  %5 = alloca ptr, align 8
  %6 = alloca i32, align 4
  store ptr %0, ptr %3, align 8, !tbaa !6
  call void @llvm.lifetime.start.p0(i64 4, ptr %4) #18
  store i32 0, ptr %4, align 4, !tbaa !15
  call void @llvm.lifetime.start.p0(i64 8, ptr %5) #18
  %7 = load ptr, ptr %3, align 8, !tbaa !6
  %8 = call ptr @g_dir_open(ptr noundef %7, i32 noundef 0, ptr noundef null)
  store ptr %8, ptr %5, align 8, !tbaa !32
  %9 = load ptr, ptr %5, align 8, !tbaa !32
  %10 = icmp eq ptr %9, null
  br i1 %10, label %11, label %12

11:                                               ; preds = %1
  store i32 1, ptr %2, align 4
  store i32 1, ptr %6, align 4
  br label %29

12:                                               ; preds = %1
  br label %13

13:                                               ; preds = %22, %12
  %14 = load ptr, ptr %5, align 8, !tbaa !32
  %15 = call ptr @g_dir_read_name(ptr noundef %14)
  %16 = icmp ne ptr %15, null
  br i1 %16, label %17, label %23

17:                                               ; preds = %13
  %18 = load i32, ptr %4, align 4, !tbaa !15
  %19 = add nsw i32 %18, 1
  store i32 %19, ptr %4, align 4, !tbaa !15
  %20 = icmp sgt i32 %19, 1
  br i1 %20, label %21, label %22

21:                                               ; preds = %17
  br label %23

22:                                               ; preds = %17
  br label %13

23:                                               ; preds = %21, %13
  %24 = load ptr, ptr %5, align 8, !tbaa !32
  call void @g_dir_close(ptr noundef %24)
  %25 = load i32, ptr %4, align 4, !tbaa !15
  %26 = icmp eq i32 %25, 0
  br i1 %26, label %27, label %28

27:                                               ; preds = %23
  store i32 1, ptr %2, align 4
  store i32 1, ptr %6, align 4
  br label %29

28:                                               ; preds = %23
  store i32 0, ptr %2, align 4
  store i32 1, ptr %6, align 4
  br label %29

29:                                               ; preds = %28, %27, %11
  call void @llvm.lifetime.end.p0(i64 8, ptr %5) #18
  call void @llvm.lifetime.end.p0(i64 4, ptr %4) #18
  %30 = load i32, ptr %2, align 4
  ret i32 %30
}