; Function Attrs: nounwind uwtable
define range(i32 0, 2) i32 @dt_util_is_dir_empty(ptr noundef %0) local_unnamed_addr #0 {
  %2 = tail call ptr @g_dir_open(ptr noundef %0, i32 noundef 0, ptr noundef null) #27
  %3 = icmp eq ptr %2, null
  br i1 %3, label %9, label %.preheader

.preheader:                                       ; preds = %1, %.preheader
  %4 = phi i1 [ true, %.preheader ], [ false, %1 ]
  %5 = phi i1 [ false, %.preheader ], [ true, %1 ]
  %6 = tail call ptr @g_dir_read_name(ptr noundef nonnull %2) #27
  %.not = icmp eq ptr %6, null
  %brmerge = or i1 %4, %.not
  br i1 %brmerge, label %7, label %.preheader

7:                                                ; preds = %.preheader
  tail call void @g_dir_close(ptr noundef nonnull %2) #27
  %8 = and i1 %5, %.not
  %. = zext i1 %8 to i32
  br label %9

9:                                                ; preds = %7, %1
  %.0 = phi i32 [ 1, %1 ], [ %., %7 ]
  ret i32 %.0
}